target datalayout = "e-m:e-p270:32:32-p271:32:32-p272:64:64-i64:64-i128:128-f80:128-n8:16:32:64-S128"
target triple = "x86_64-pc-linux-gnu"

%struct.AVChannelLayout = type { i32, i32, %union.anon.1, ptr }
%union.anon.1 = type { i64 }
%struct.AVRational = type { i32, i32 }
%struct.AVFrame = type { [8 x ptr], [8 x i32], ptr, i32, i32, i32, i32, i32, %struct.AVRational, i64, i64, %struct.AVRational, i32, ptr, i32, i32, [8 x ptr], ptr, i32, ptr, i32, i32, i32, i32, i32, i32, i32, i64, ptr, i32, ptr, ptr, i64, i64, i64, i64, ptr, %struct.AVChannelLayout, i64 }

; Function Attrs: nounwind uwtable
define internal void @set_pixel4_16(ptr noundef %0, i32 noundef %1, i32 noundef %2, i32 noundef %3, i32 noundef %4, i32 noundef %5, i32 noundef %6) #1 {
  %8 = alloca ptr, align 8
  %9 = alloca i32, align 4
  %10 = alloca i32, align 4
  %11 = alloca i32, align 4
  %12 = alloca i32, align 4
  %13 = alloca i32, align 4
  %14 = alloca i32, align 4
  store ptr %0, ptr %8, align 8, !tbaa !26
  store i32 %1, ptr %9, align 4, !tbaa !36
  store i32 %2, ptr %10, align 4, !tbaa !36
  store i32 %3, ptr %11, align 4, !tbaa !36
  store i32 %4, ptr %12, align 4, !tbaa !36
  store i32 %5, ptr %13, align 4, !tbaa !36
  store i32 %6, ptr %14, align 4, !tbaa !36
  %15 = load i32, ptr %11, align 4, !tbaa !36
  %16 = trunc i32 %15 to i16
  %17 = load ptr, ptr %8, align 8, !tbaa !26
  %18 = getelementptr inbounds nuw %struct.AVFrame, ptr %17, i32 0, i32 0
  %19 = getelementptr inbounds [8 x ptr], ptr %18, i64 0, i64 0
  %20 = load ptr, ptr %19, align 8, !tbaa !70
  %21 = load i32, ptr %10, align 4, !tbaa !36
  %22 = load ptr, ptr %8, align 8, !tbaa !26
  %23 = getelementptr inbounds nuw %struct.AVFrame, ptr %22, i32 0, i32 1
  %24 = getelementptr inbounds [8 x i32], ptr %23, i64 0, i64 0
  %25 = load i32, ptr %24, align 8, !tbaa !36
  %26 = mul nsw i32 %21, %25
  %27 = sext i32 %26 to i64
  %28 = getelementptr inbounds i8, ptr %20, i64 %27
  %29 = load i32, ptr %9, align 4, !tbaa !36
  %30 = mul nsw i32 2, %29
  %31 = sext i32 %30 to i64
  %32 = getelementptr inbounds i8, ptr %28, i64 %31
  store i16 %16, ptr %32, align 1, !tbaa !71
  %33 = load i32, ptr %12, align 4, !tbaa !36
  %34 = trunc i32 %33 to i16
  %35 = load ptr, ptr %8, align 8, !tbaa !26
  %36 = getelementptr inbounds nuw %struct.AVFrame, ptr %35, i32 0, i32 0
  %37 = getelementptr inbounds [8 x ptr], ptr %36, i64 0, i64 1
  %38 = load ptr, ptr %37, align 8, !tbaa !70
  %39 = load i32, ptr %10, align 4, !tbaa !36
  %40 = load ptr, ptr %8, align 8, !tbaa !26
  %41 = getelementptr inbounds nuw %struct.AVFrame, ptr %40, i32 0, i32 1
  %42 = getelementptr inbounds [8 x i32], ptr %41, i64 0, i64 1
  %43 = load i32, ptr %42, align 4, !tbaa !36
  %44 = mul nsw i32 %39, %43
  %45 = sext i32 %44 to i64
  %46 = getelementptr inbounds i8, ptr %38, i64 %45
  %47 = load i32, ptr %9, align 4, !tbaa !36
  %48 = mul nsw i32 2, %47
  %49 = sext i32 %48 to i64
  %50 = getelementptr inbounds i8, ptr %46, i64 %49
  store i16 %34, ptr %50, align 1, !tbaa !71
  %51 = load i32, ptr %13, align 4, !tbaa !36
  %52 = trunc i32 %51 to i16
  %53 = load ptr, ptr %8, align 8, !tbaa !26
  %54 = getelementptr inbounds nuw %struct.AVFrame, ptr %53, i32 0, i32 0
  %55 = getelementptr inbounds [8 x ptr], ptr %54, i64 0, i64 2
  %56 = load ptr, ptr %55, align 8, !tbaa !70
  %57 = load i32, ptr %10, align 4, !tbaa !36
  %58 = load ptr, ptr %8, align 8, !tbaa !26
  %59 = getelementptr inbounds nuw %struct.AVFrame, ptr %58, i32 0, i32 1
  %60 = getelementptr inbounds [8 x i32], ptr %59, i64 0, i64 2
  %61 = load i32, ptr %60, align 8, !tbaa !36
  %62 = mul nsw i32 %57, %61
  %63 = sext i32 %62 to i64
  %64 = getelementptr inbounds i8, ptr %56, i64 %63
  %65 = load i32, ptr %9, align 4, !tbaa !36
  %66 = mul nsw i32 2, %65
  %67 = sext i32 %66 to i64
  %68 = getelementptr inbounds i8, ptr %64, i64 %67
  store i16 %52, ptr %68, align 1, !tbaa !71
  %69 = load i32, ptr %14, align 4, !tbaa !36
  %70 = trunc i32 %69 to i16
  %71 = load ptr, ptr %8, align 8, !tbaa !26
  %72 = getelementptr inbounds nuw %struct.AVFrame, ptr %71, i32 0, i32 0
  %73 = getelementptr inbounds [8 x ptr], ptr %72, i64 0, i64 3
  %74 = load ptr, ptr %73, align 8, !tbaa !70
  %75 = load i32, ptr %10, align 4, !tbaa !36
  %76 = load ptr, ptr %8, align 8, !tbaa !26
  %77 = getelementptr inbounds nuw %struct.AVFrame, ptr %76, i32 0, i32 1
  %78 = getelementptr inbounds [8 x i32], ptr %77, i64 0, i64 3
  %79 = load i32, ptr %78, align 4, !tbaa !36
  %80 = mul nsw i32 %75, %79
  %81 = sext i32 %80 to i64
  %82 = getelementptr inbounds i8, ptr %74, i64 %81
  %83 = load i32, ptr %9, align 4, !tbaa !36
  %84 = mul nsw i32 2, %83
  %85 = sext i32 %84 to i64
  %86 = getelementptr inbounds i8, ptr %82, i64 %85
  store i16 %70, ptr %86, align 1, !tbaa !71
  ret void
}